0001 F720: 00 00 00 00 00 00 00 00  00 00 00 00 00 00 00 00  ........ ........
0001 F730: 00 00 00 00 00 00 00 00  00 00 00 00 00 00 00 00  ........ ........
0001 F740: 00 00 00 00 00 00 00 00  00 00 00 00 00 00 00 00  ........ ........
0001 F750: 00 00 00 00 00 00 00 00  00 00 00 00 00 00 00 00  ........ ........
0001 F760: 00 00 00 00 00 00 00 00  00 00 00 00 00 00 00 00  ........ ........
movedback5/MEMDUMP.BIN                                                          
0001 F6E0: 05 00 09 00 09 00 00 00  00 00 00 00 00 00 00 00  ........ ........
0001 F6F0: 00 00 00 00 00 00 00 00  00 00 00 00 00 00 00 00  ........ ........
0001 F700: 00 00 00 00 00 00 00 00  00 00 00 00 00 00 00 00  ........ ........
0001 F710: 00 00 00 00 00 00 00 00  00 00 00 00 00 00 00 00  ........ ........
0001 F720: 00 00 00 00 00 00 00 09  00 00 00 00 00 00 00 00  ........ ........
0001 F730: 00 00 00 00 00 00 00 00  00 00 00 00 00 00 00 00
........ .....


0000 A910: 01 00 38 87 E9 00 F0 F7  05 9E 0E 00 00 00 01 01  ..8..... ........
0000 A920: FC 04 00 01 02 03 04 05  06 07 08 09 0A 0B 0C 0D  ........ ........
0000 A930: 0E 0F 10 11 12 13 14 15  16 17 18 19 1A 1B 1C 1D  ........ ........



0000 A910: 01 00 38 87 E9 00 F0 F7  05 9E 0E 00 00 00 01 01  ..8..... ........
0000 A920: 06 05 00 01 02 03 04 05  06 07 08 09 0A 0B 0C 0D  ........ ........ <-- 0605 could be timer
0000 A930: 0E 0F 10 11 12 13 14 15  16 17 18 19 1A 1B 1C 1D  ........ ........



set speed? --- no probably some graphics-- looks completely diff in second dump

0001 A320: 00 00 00 00 00 00 00 00  00 00 00 00 00 00 00 00  ........ ........
0001 A330: 00 01 00 01 00 01 00 04  00 BE BE FF FF 00 00 00  ........ ........ <-- bebe becomes
0001 A340: FF FF FF FF FF FF FF FF  FF FF FF FF FF FF FF FF  ........ ........
0001 A350: FF FF FF FF 03 00 FF FF  00 00 FF FF FF FF FF FF  ........ ........
0001 A360: 1A 00 02 00 00 00 00 00  FF FF 00 00 FF 00 00 00  ........ ........
0001 A370: 00 00 00 00 00 00 00 FF  FF 00 00 00 00 00 18 FC  ........ ........
0001 A380: 00 00 59 EF 02 00 0F 00  01 00 00 00 1E 00 00 00  ..Y..... ........
0001 A390: 03 00 0F 00 04 00 1E 00  01 00 0D 00 0E 00 90 01  ........ ........
movedback5/MEMDUMP.BIN                                                          
0001 A310: 72 63 75 70 69 6E 65 00  00 00 00 00 00 00 00 00  rcupine. ........
0001 A320: 00 00 00 00 00 00 00 00  00 00 00 00 00 00 00 00  ........ ........
0001 A330: 00 01 00 01 00 01 00 04  00 CE CE FF FF 00 00 00  ........ ........ <-- cece and stays that way
0001 A340: FF FF FF FF FF FF FF FF  FF FF FF FF FF FF FF FF  ........ ........
0001 A350: FF FF FF FF 03 00 FF FF  00 00 FF FF FF FF FF FF  ........ ........


this guyy seems to always be changing
0001 B450: 01 00 3C 00 50 0B 00 00  39 15 55 4D 00 00 00 00  ..<.P... 9.UM....
0001 B450: 01 00 3C 00 50 0B 00 00  83 C3 A8 FA 00 00 00 00  ..<.P... ........

This could be something too (looks like floats?) [also checked out in front view]

0001 E6E0: 00 00 00 00 00 00 00 00  00 00 00 00 00 00 00 00  ........ ........
0001 E6F0: 00 00 39 3B 4E FF 1E 61  01 00 5B 8B 85 FF 81 EF  ..9;N..a ..[.....
0001 E700: 01 00 35 2B FF FF 1C A0  FD FF 98 D9 FF FF BD 01  ..5+.... ........
0001 E710: 00 00 B0 3C 00 00 50 84  00 00 2A 34 09 00 EB F0  ...<..P. ..*4....
movedback5/MEMDUMP.BIN                                                          
0001 E690: 00 00 00 00 00 00 00 00  00 00 00 00 00 00 00 00  ........ ........
0001 E6A0: 00 00 00 00 00 00 00 00  00 00 00 00 00 00 00 00  ........ ........
0001 E6B0: 00 00 00 00 00 00 00 00  00 00 00 00 00 00 00 00  ........ ........
0001 E6C0: 00 00 00 00 00 00 00 00  00 00 00 00 00 00 06 00  ........ ........
0001 E6D0: 8D 6F 00 00 00 00 00 00  00 00 00 00 00 00 00 00  .o...... ........
0001 E6E0: 00 00 00 00 00 00 00 00  00 00 00 00 00 00 00 00  ........ ........
0001 E6F0: 00 00 B5 56 44 FF 86 AA  01 00 6F 6C 7E FF 81 EF  ...VD... ..ol~... <--      b55644ff86aa01006f6c7e
0001 E700: 01 00 35 2B FF FF 1C A0  FD FF 98 D9 FF FF BD 01  ..5+.... ........ becomes  534d40ff7ac8010099847b


also check dis out [also checks out in front view]


0001 E9B0: 00 00 00 00 00 00 00 00  00 00 00 00 00 00 00 00  ........ ........
0001 E9C0: 00 00 00 00 00 00 00 00  00 00 00 00 00 00 39 3B  ........ ......9;
0001 E9D0: 4E FF 1E 61 01 00 5B 8B  85 FF 00 00 00 00 00 00  N..a..[. ........
0001 E9E0: 00 00 00 00 00 00 00 00  00 00 00 00 00 00 00 00  ........ ........
movedback6/MEMDUMP.BIN                                                          
0001 E960: 01 00 49 92 01 00 FD EA  01 00 24 8D FF FF 49 7B  ..I..... ..$...I{
0001 E970: FE FF FD F3 00 00 24 DC  FE FF EE B3 FE FF E8 D5  ......$. ........
0001 E980: FE FF 13 84 F2 FF 00 00  00 00 00 00 00 00 00 00  ........ ........
0001 E990: 00 00 00 00 00 00 00 00  00 00 00 00 00 00 00 00  ........ ........
0001 E9A0: 00 00 00 00 00 00 00 00  00 00 00 00 00 00 00 00  ........ ........
0001 E9B0: 00 00 00 00 00 00 00 00  00 00 00 00 00 00 00 00  ........ ........
0001 E9C0: 00 00 00 00 00 00 00 00  00 00 00 00 00 00 53 4D  ........ ......SM <--     534d40ff7ac8010099847bff
0001 E9D0: 40 FF 7A C8 01 00 99 84  7B FF 00 00 00 00 00 00  @.z..... {....... becomes b55644ff86aa01006f6c7eff
0001 E9E0: 00 00 00 00 00 00 00 00  00 00 00 00 00 00 00 00  ........ ........

on turn 
01A2:37CD  C57606              lds  si,[bp+06]             ss:[FF66]=A9C2
01A2:37D0  C47E0A              les  di,[bp+0A]             ss:[FF6A]=AC9E
01A2:37D3  FC                  cld
01A2:37D4  D1E9                shr  cx,1
01A2:37D6  F3A5                repe movsw
01A2:37D8  13C9                adc  cx,cx
01A2:37DA  F3A4                repe movsb
called by
34A5:06E7  E99602              jmp  00000980 ($+296)       (down)
called by
0560:074c
called by
0560:20ff (main loop ?  seems to got through full frames here)
called by




also

0001 EAA0: 69 00 59 00 72 FF 8E 00  BF 00 17 00 70 00 8D FF  i.Y.r... ....p...
0001 EAB0: 5F 00 14 00 CA FF 79 00  B2 FF B9 FF C8 FF 30 00  _.....y. ......0.
0001 EAC0: 70 00 01 00 09 00 0C 00  31 00 6D 00 07 00 13 00  p....... 1.m.....
0001 EAD0: CB FF 38 00 B6 FF CA 00  6F 00 4E FF 28 FF 68 FF  ..8..... o.N.(.h.
0001 EAE0: BA FF 00 00 00 00 00 00  00 00 00 00 00 00 00 00  ........ ........
0001 EAF0: 00 00 00 00 00 00 00 00  00 00 00 00 00 00 00 00  ........ ........
0001 EB00: 00 00 00 00 00 00 00 00  00 00 00 00 00 00 00 00  ........ ........
movedback6/MEMDUMP.BIN                                                          
0001 EA80: 00 00 00 00 00 00 00 00  66 00 C8 00 7D FF 00 00  ........ f...}...
0001 EA90: 00 00 00 00 DE FF 01 00  BC FF DC 00 E8 FF 21 00  ........ ......!.
0001 EAA0: 69 00 59 00 72 FF 8E 00  BF 00 17 00 70 00 8D FF  i.Y.r... ....p...
0001 EAB0: 5F 00 14 00 CA FF 79 00  D0 FF 09 00 F6 FF 08 00  _.....y. ........ <-- 8D 00 B0 FF 71 00 AA
0001 EAC0: 36 00 B9 FF EF FF 07 00  31 00 6D 00 07 00 13 00  6....... 1.m..... <-- 70 00 F6 FF C0 FF A4
0001 EAD0: CB FF 38 00 B6 FF CA 00  6F 00 4E FF 28 FF 68 FF  ..8..... o.N.(.h.
0001 EAE0: BA FF 00 00 00 00 00 00  00 00 00 00 00 0



this could be velocity vector: it stays constant between two items (constant between two movedfront too)

0001 F570: 00 00 00 00 00 00 00 00  00 00 01 01 01 01 01 00  ........ ........
0001 F580: 00 00 00 00 15 00 B8 A1  00 00 50 FB FF FF 68 74  ........ ..P...ht
0001 F590: 00 00 00 00 00 00 00 00  00 00 00 00 00 00 00 00  ........ ........
0001 F5A0: 00 00 00 00 00 00 00 00  00 00 4E 75 00 00 00 00  ........ ..Nu....
0001 F5B0: 00 00 00 00 00 00 00 00  00 00 00 00 00 00 00 00  ........ ........
movedback5/MEMDUMP.BIN                                                          
0001 F530: 00 00 00 00 00 00 00 00  00 00 00 00 00 00 00 00  ........ ........
0001 F540: 00 00 00 00 00 00 00 00  00 00 00 00 00 00 00 00  ........ ........
0001 F550: 00 00 00 00 00 00 00 00  00 00 00 00 00 00 00 00  ........ ........
0001 F560: 00 00 00 00 00 00 00 00  00 00 00 00 00 00 00 00  ........ ........
0001 F570: 00 00 00 00 00 00 00 00  00 00 01 01 01 01 01 00  ........ ........
0001 F580: 00 00 00 00 15 00 2C 10  00 00 88 FF FF FF A4 0B  ......,. ........ <-- 0000 2c10 0000 88ff ffff a40b
0001 F590: 00 00 00 00 00 00 00 00  00 00 00 00 00 00 00 00  ........ ........




this could also be velocity vector
0001 FB30: 00 00 00 00 00 00 00 00  00 00 00 00 00 00 00 00  ........ ........
0001 FB40: 00 00 00 00 00 00 00 00  00 00 B8 A1 00 00 50 FB  ........ ......P.
0001 FB50: FF FF 68 74 00 00 00 00  00 00 00 00 00 00 00 00  ..ht.... ........ <-- in front view 00 00 FC DC FE FF 00 00  00 00 00 00 00 00 00 00 
movedback5/MEMDUMP.BIN                                                          
0001 FAD0: 00 00 00 00 00 00 00 00  00 00 00 00 00 00 00 00  ........ ........
0001 FAE0: 00 00 00 00 00 00 00 00  00 00 00 00 00 00 00 00  ........ ........
0001 FAF0: 00 00 00 00 00 00 00 00  00 00 00 00 00 00 00 00  ........ ........
0001 FB00: 00 00 00 00 00 00 00 00  00 00 00 00 00 00 00 00  ........ ........
0001 FB10: 00 00 00 00 00 00 00 00  00 00 00 00 00 00 00 00  ........ ........
0001 FB20: 00 00 00 00 00 00 00 00  00 00 00 00 00 00 00 00  ........ ........
0001 FB30: 00 00 00 00 00 00 00 00  00 00 00 00 00 00 00 00  ........ ........
0001 FB40: 00 00 00 00 00 00 00 00  00 00 2C 10 00 00 88 FF  ........ ..,.....
0001 FB50: FF FF A4 0B 00 00 00 00  00 00 00 00 00 00 00 00  ........ ........





0001 FB90: 00 00 00 00 00 00 00 00  00 00 00 00 BC 26 04 00  ........ .....&.. <-- check bc 26 turning into 161d
0001 FBA0: 22 39 04 00 40 0D 03 00  4C 37 04 00 4C 37 04 00  "9..@... L7..L7..     in both moving guys
0001 FBB0: 00 00 00 00 00 00 00 00  00 00 00 00 00 00 00 00  ........ ........
0001 FBC0: 00 00 00 00 00 00 02 00  02 00 02 00 02 00 02 00  ........ ........
0001 FBD0: 02 00 02 00 02 00 02 00  00 00 00 00 00 00 00 00  ........ ........
0001 FBE0: 00 00 00 00 5E 01 1E 00  72 00 69 00 00 00 00 00  ....^... r.i.....
movedback6/MEMDUMP.BIN                                                          
0001 FB60: 00 00 00 00 00 00 00 00  00 00 64 00 64 00 64 00  ........ ..d.d.d.
0001 FB70: 64 00 64 00 00 00 00 00  00 00 00 00 00 00 00 00  d.d..... ........
0001 FB80: 00 00 00 00 00 00 00 00  0E 02 BB 0B BB 0B B1 0B  ........ ........
0001 FB90: 00 00 00 00 00 00 00 00  00 00 00 00 16 1D 04 00  ........ ........ <-- in fore view changes f82b
                                                                                   then 3828
velocity vector? changing:
3063:00BF  19976EBE            sbb  [bx-4192],dx           ds:[FFFFBE6E]=F9E2 
2557:3409  83C404              add  sp,0004
34A5:194A  44                  inc  sp

also:

2FBC:00BF  19976EBE            sbb  [bx-4192],dx           ds:[FFFFBE6E]=F9E2  
2FBC:00C3  B86CBE              mov  ax,BE6C
2FBC:00C6  0BC0                or   ax,ax
2FBC:00C8  7709                ja   000000D3 ($+9)         (down)
2FBC:00CA  FF7606              push word [bp+06]           ss:[FF9C]=0000
2FBC:00CD  0E                  push cs
2FBC:00CE  E86CFF              call 0000003D ($-94)
2FBC:00D1  44                  inc  sp
2FBC:00D2  44                  inc  sp
2FBC:00D3  5D                  pop  bp
called by
2557:3409  83C404              add  sp,0004
2557:340C  5D                  pop  bp
2557:340D  CB                  retf
called by
34A5:1945  9AC500D712          call 12D7:00C5
34A5:194A  44                  inc  sp
34A5:194B  44                  inc  sp
34A5:194C  46                  inc  si
34A5:194D  83FE3C              cmp  si,003C
34A5:1950  7ECC                jle  0000191E ($-34)        (up)
34A5:1952  5E                  pop  si
34A5:1953  5D                  pop  bp
34A5:1954  CB                  retf
called by
0560:0747  9A2500CC12          call 12CC:0025
called by
0560:20FF  0E                  push cs


wow suspicious: a bunch of zeros turning into a bunch of the same set speed values?
This could be some odd stack thing---since it doesn't seem to trace back to consistent code

0002 0810: 00 00 00 00 00 00 00 00  00 00 00 00 00 00 00 00  ........ ........
0002 0820: 00 00 00 00 00 00 00 00  00 00 00 00 00 00 00 00  ........ ........
0002 0830: 00 00 00 00 00 00 00 00  00 00 00 00 00 00 00 00  ........ ........
0002 0840: 00 00 00 00 00 00 00 00  00 00 00 00 00 00 00 00  ........ ........
movedback6/MEMDUMP.BIN                                                          
0002 07C0: 00 00 00 00 00 00 00 00  00 00 28 8B 00 00 BD 22  ........ ..(...."
0002 07D0: 0C 00 38 F5 FF FF 00 00  00 00 00 00 00 00 00 00  ..8..... ........
0002 07E0: 00 00 00 00 00 00 00 00  00 00 00 00 00 00 00 00  ........ ........
0002 07F0: 00 00 00 00 00 00 00 00  00 00 00 00 00 00 00 00  ........ ........
0002 0800: 00 00 00 00 00 00 00 00  00 00 00 00 00 00 00 00  ........ ........
0002 0810: 00 00 B9 F8 FF FF 36 00  00 00 C3 FA FF FF 00 00  ......6. ........
[[can't get this hw breakpoint to hit]


in forward view: 00 00 DF F3 FF FF 5A 00  00 00 45 F7 FF FF 00 00

similar here (and different numbers in fore): but this breakpoint actually gets hit when I change speed

01A2:37CC  1E                  push ds
01A2:37CD  C57606              lds  si,[bp+06]             ss:[FF66]=CAE2
01A2:37D0  C47E0A              les  di,[bp+0A]             ss:[FF6A]=CDBE
01A2:37D3  FC                  cld
01A2:37D4  D1E9                shr  cx,1
01A2:37D6  F3A5                repe movsw
01A2:37D8  13C9                adc  cx,cx
01A2:37DA  F3A4                repe movsb
01A2:37DC  1F                  pop  ds

called by
34A5:06D5
called by
0560:074C  (call 084E:0587)
called by
0560:20ff }
Called by  }
34a5:06d5   }
called by    } main loop?
0560:074c   }
called by  }
0560:20ff }


hmmm now when I trace it I get a different thing
2FBC:04EE  17                  pop  ss
2FBC:04EF  0315                add  dx,[di]                ds:[CAE2]=F8E4
2FBC:04F1  134502              adc  ax,[di+02]             ds:[CAE4]=FFFF
2FBC:04F4  8914                mov  [si],dx                ds:[CAE2]=F8E4
2FBC:04F6  894402              mov  [si+02],ax             ds:[CAE4]=FFFF      
2FBC:04F9  8B4706              mov  ax,[bx+06]             ds:[FF82]=FFFF
2FBC:04FC  8B5704              mov  dx,[bx+04]             ds:[FF80]=FE36
2FBC:04FF  035504              add  dx,[di+04]             ds:[CAE6]=03C7
2FBC:0502  134506              adc  ax,[di+06]             ds:[CAE8]=0000
2FBC:0505  895404              mov  [si+04],dx             ds:[CAE6]=03C7    
called by

34A5:1CE8  9A4701AD12          call 12AD:0147
34A5:1CED  83C406              add  sp,0006
34A5:1CF0  0BF6                or   si,si
34A5:1CF2  7512                jne  00001D06 ($+12)        (down)

called by
34A5:192C  E8B100              call 000019E0 ($+b1)
34A5:192F  44                  inc  sp
34A5:1930  44                  inc  sp
34A5:1931  8BDE                mov  bx,si
34A5:1933  D1E3                shl  bx,1
34A5:1935  83BF1ABD0C          cmp  word [bx-42E6],000C    ds:[66DC]=0003       


0002 0AE0: 00 00 00 00 00 00 00 00  00 00 00 00 00 00 00 00  ........ ........
0002 0AF0: 00 00 00 00 00 00 00 00  00 00 00 00 00 00 00 00  ........ ........
0002 0B00: 00 00 00 00 00 00 00 00  00 00 00 00 00 00 00 00  ........ ........
0002 0B10: 00 00 00 00 08 00 FF FF  05 00 08 00 00 00 00 00  ........ ........
0002 0B20: 00 00 00 00 00 00 00 00  00 00 00 00 00 00 00 00  ........ ........
0002 0B30: 00 00 00 00 00 00 00 00  00 00 00 00 00 00 00 00  ........ ........
0002 0B40: 00 00 00 00 00 00 00 00  00 00 00 00 00 00 00 00  ........ ........
0002 0B50: 00 00 00 00 00 00 00 00  00 00 00 00 00 00 00 00  ........ ........
0002 0B60: 00 00 00 00 00 00 00 00  00 00 00 00 00 00 00 00  ........ ........
movedback6/MEMDUMP.BIN                                                          
0002 0AE0: 00 00 00 00 00 00 00 00  00 00 00 00 00 00 B9 F8  ........ ........
0002 0AF0: FF FF 36 00 00 00 C3 FA  FF FF 00 00 00 00 00 00  ..6..... ........


Seems to change every frame:
01A2:37CC  1E                  push ds
01A2:37CD  C57606              lds  si,[bp+06]             ss:[FF66]=CAE2
01A2:37D0  C47E0A              les  di,[bp+0A]             ss:[FF6A]=CDBE
01A2:37D3  FC                  cld
01A2:37D4  D1E9                shr  cx,1
01A2:37D6  F3A5                repe movsw
01A2:37D8  13C9                adc  cx,cx
01A2:37DA  F3A4                repe movsb
01A2:37DC  1F                  pop  ds

called by
34A5:06D0  9AC737A201          call 01A2:37C7
34A5:06D5  B89EAC              mov  ax,AC9E
...
34A5:06E2  9AC737A201          call 01A2:37C7

called by
34A5:06E7 
called by
0560:0747  9A2500CC12          call 12CC:0025 <-- this one is the caller
0560:074C  9A87054E08          call 084E:0587
called by
0560:20FC  E836E6              call 00000735 ($-19ca)
0560:20FF  0E                  push cs
called by
2FBC:22BE  33F6                xor  si,si
called by



possibly also:

0E9E:04FA  5F                  pop  di          
0E9E:04FB  9A0F00470F          call 0F47:000F
0E9E:0500  B80100              mov  ax,0001
0E9E:0503  CB                  retf
0E9E:0504  9C                  pushf
0E9E:0505  9C                  pushf


possibly also also:





less convinced about this  bfbf->3036 (or 3336)

000A 2890: BF BF BF BF BF BF BF BF  BF BF BF BF BF BF BF BF  ........ ........
000A 28A0: BF BF BF BF BF BF BF BF  BF BF BF BF BF BF BF BF  ........ ........
000A 28B0: BF BF BF BF BF BF BF BF  BF BF BF BF BF BF BF BF  ........ ........
000A 28C0: BF BF BF BF BF BF BF BF  BF BF BF BF BF BF BF BF  ........ ........
000A 28D0: BF BF BF BF BF BF BF BF  BF BF BF BF BF BF BF BF  ........ ........
000A 28E0: BF BF BF BF BF BF BF BF  BF BF BF BF BF BF BF BF  ........ ........
movedback6/MEMDUMP.BIN                                                          
000A 2860: BF BF BF BF BF BF BF BF  BF BF BF BF BF BF BF BF  ........ ........
000A 2870: BF BF BF BF BF BF BF BF  BF BF BF BF BF BF BF BF  ........ ........
000A 2880: BF BF BF BF BF BF BF BF  BF BF BF BF BF BF BF BF  ........ ........
000A 2890: BF BF BF BF BF BF BF BF  BF BF BF BF BF BF BF 30  ........ .......0
000A 28A0: 36 BF BF BF BF BF BF BF  BF BF BF BF BF BF BF BF  6....... ........
000A 28B0: BF BF BF BF BF BF BF BF  BF BF BF BF BF BF BF BF  ........ ........
000A 28C0: BF BF BF BF BF BF BF BF  BF BF BF BF BF BF BF BF  ........ 

000A 19A0: BF BF BF BF BF BF BF BF  BF BF BF BF BF BF BF BF  ........ ........
000A 19B0: BF BF BF BF BF BF BF BF  BF BF BF BF BF BF BF BF  ........ ........
movedback5/MEMDUMP.BIN                                                          
000A 1930: BF BF BF BF BF BF BF BF  BF BF BF BF BF BF BF BF  ........ ........
000A 1940: BF BF BF BF BF BF BF BF  BF BF BF BF BF BF BF BF  ........ ........
000A 1950: BF BF BF BF BF BF BF BF  BF BF BF BF BF BF BF BF  ........ ........
000A 1960: BF BF BF BF BF BF BF BF  BF BF BF BF BF BF BF BF  ........ ........
000A 1970: BF BF BF BF BF BF BF BF  BF BF BF BF BF BF BF BF  ........ ........
000A 1980: BF BF BF BF BF BF BF BF  BF BF BF BF BF BF BF BF  ........ ........
000A 1990: BF BF BF BF BF BF BF BF  BF BF BF BF BF BF BF BF  ........ ........
000A 19A0: BF 33 BF BF BF BF BF BF  BF BF BF BF BF BF BF BF  .3...... ........






change speed at:

2557:0805  8946FC              mov  [bp-04],ax             ss:[FF8E]=2400
2557:0808  8956FE              mov  [bp-02],dx             ss:[FF90]=0000
2557:080B  8BDE                mov  bx,si
2557:080D  D1E3                shl  bx,1
2557:080F  D1E3                shl  bx,1
2557:0811  8B460A              mov  ax,[bp+0A]             ss:[FF9C]=0000
2557:0814  8B5608              mov  dx,[bp+08]             ss:[FF9A]=0100
2557:0817  0197F6B9            add  [bx-460A],dx           ds:[FFFFB9F6]=FA7E
2557:081B  8B97F6B9            mov  dx,[bx-460A]           ds:[FFFFB9F6]=FA7E <-- this changes it







case statement from hell
12CC:0025  EA8D00A534          jmp  34A5:008D                      
12CC:002A  EA9310A534          jmp  34A5:1093
12CC:002F  EA7B1EA534          jmp  34A5:1E7B
12CC:0034  EAE019A534          jmp  34A5:19E0
12CC:0039  EAA409A534          jmp  34A5:09A4
12CC:003E  EA341DA534          jmp  34A5:1D34
12CC:0043  EA6B18A534          jmp  34A5:186B
12CC:0048  EAD214A534          jmp  34A5:14D2
12CC:004D  EA5519A534          jmp  34A5:1955
12CC:0052  EA9D20A534          jmp  34A5:209D
